target datalayout = "e-m:e-p270:32:32-p271:32:32-p272:64:64-i64:64-i128:128-f80:128-n8:16:32:64-S128"
target triple = "x86_64-pc-linux-gnu"

%struct.PS_HintsRec_ = type { ptr, i32, i32, i32, [2 x %struct.PS_DimensionRec_] }
%struct.PS_DimensionRec_ = type { %struct.PS_Hint_TableRec_, %struct.PS_Mask_TableRec_, %struct.PS_Mask_TableRec_ }
%struct.PS_Hint_TableRec_ = type { i32, i32, ptr }
%struct.PS_Mask_TableRec_ = type { i32, i32, ptr }

; Function Attrs: nounwind uwtable
define internal void @ps_hints_t2mask(ptr noundef %0, i32 noundef %1, i32 noundef %2, ptr noundef %3) #0 {
  %5 = alloca ptr, align 8
  %6 = alloca i32, align 4
  %7 = alloca i32, align 4
  %8 = alloca ptr, align 8
  %9 = alloca ptr, align 8
  %10 = alloca i32, align 4
  %11 = alloca ptr, align 8
  %12 = alloca ptr, align 8
  %13 = alloca i32, align 4
  %14 = alloca i32, align 4
  store ptr %0, ptr %5, align 8
  store i32 %1, ptr %6, align 4
  store i32 %2, ptr %7, align 4
  store ptr %3, ptr %8, align 8
  %15 = load ptr, ptr %5, align 8
  store ptr %15, ptr %9, align 8
  %16 = load ptr, ptr %9, align 8
  %17 = getelementptr inbounds %struct.PS_HintsRec_, ptr %16, i32 0, i32 1
  %18 = load i32, ptr %17, align 8
  %19 = icmp ne i32 %18, 0
  br i1 %19, label %69, label %20

20:                                               ; preds = %4
  %21 = load ptr, ptr %9, align 8
  %22 = getelementptr inbounds %struct.PS_HintsRec_, ptr %21, i32 0, i32 4
  %23 = getelementptr inbounds [2 x %struct.PS_DimensionRec_], ptr %22, i64 0, i64 0
  store ptr %23, ptr %11, align 8
  %24 = load ptr, ptr %9, align 8
  %25 = getelementptr inbounds %struct.PS_HintsRec_, ptr %24, i32 0, i32 0
  %26 = load ptr, ptr %25, align 8
  store ptr %26, ptr %12, align 8
  %27 = load ptr, ptr %11, align 8
  %28 = getelementptr inbounds %struct.PS_DimensionRec_, ptr %27, i64 0
  %29 = getelementptr inbounds %struct.PS_DimensionRec_, ptr %28, i32 0, i32 0
  %30 = getelementptr inbounds %struct.PS_Hint_TableRec_, ptr %29, i32 0, i32 0
  %31 = load i32, ptr %30, align 8
  store i32 %31, ptr %13, align 4
  %32 = load ptr, ptr %11, align 8
  %33 = getelementptr inbounds %struct.PS_DimensionRec_, ptr %32, i64 1
  %34 = getelementptr inbounds %struct.PS_DimensionRec_, ptr %33, i32 0, i32 0
  %35 = getelementptr inbounds %struct.PS_Hint_TableRec_, ptr %34, i32 0, i32 0
  %36 = load i32, ptr %35, align 8
  store i32 %36, ptr %14, align 4
  %37 = load i32, ptr %7, align 4
  %38 = load i32, ptr %13, align 4
  %39 = load i32, ptr %14, align 4
  %40 = add i32 %38, %39
  %41 = icmp ne i32 %37, %40
  br i1 %41, label %42, label %45

42:                                               ; preds = %20
  br label %43

43:                                               ; preds = %42
  br label %44

44:                                               ; preds = %43
  br label %74

45:                                               ; preds = %20
  %46 = load ptr, ptr %11, align 8
  %47 = getelementptr inbounds %struct.PS_DimensionRec_, ptr %46, i64 0
  %48 = load ptr, ptr %8, align 8
  %49 = load i32, ptr %14, align 4
  %50 = load i32, ptr %13, align 4
  %51 = load i32, ptr %6, align 4
  %52 = load ptr, ptr %12, align 8
  %53 = call i32 @ps_dimension_set_mask_bits(ptr noundef %47, ptr noundef %48, i32 noundef %49, i32 noundef %50, i32 noundef %51, ptr noundef %52)
  store i32 %53, ptr %10, align 4
  %54 = load i32, ptr %10, align 4
  %55 = icmp ne i32 %54, 0
  br i1 %55, label %56, label %57

56:                                               ; preds = %45
  br label %70

57:                                               ; preds = %45
  %58 = load ptr, ptr %11, align 8
  %59 = getelementptr inbounds %struct.PS_DimensionRec_, ptr %58, i64 1
  %60 = load ptr, ptr %8, align 8
  %61 = load i32, ptr %14, align 4
  %62 = load i32, ptr %6, align 4
  %63 = load ptr, ptr %12, align 8
  %64 = call i32 @ps_dimension_set_mask_bits(ptr noundef %59, ptr noundef %60, i32 noundef 0, i32 noundef %61, i32 noundef %62, ptr noundef %63)
  store i32 %64, ptr %10, align 4
  %65 = load i32, ptr %10, align 4
  %66 = icmp ne i32 %65, 0
  br i1 %66, label %67, label %68

67:                                               ; preds = %57
  br label %70

68:                                               ; preds = %57
  br label %69

69:                                               ; preds = %68, %4
  br label %74

70:                                               ; preds = %67, %56
  %71 = load i32, ptr %10, align 4
  %72 = load ptr, ptr %9, align 8
  %73 = getelementptr inbounds %struct.PS_HintsRec_, ptr %72, i32 0, i32 1
  store i32 %71, ptr %73, align 8
  br label %74

74:                                               ; preds = %70, %69, %44
  ret void
}