; Function Attrs: nounwind uwtable
define internal void @ps_hints_t2mask(ptr nocapture noundef %0, i32 noundef %1, i32 noundef %2, ptr nocapture noundef readonly %3) #0 {
  %5 = getelementptr inbounds i8, ptr %0, i64 8
  %6 = load i32, ptr %5, align 8
  %.not = icmp eq i32 %6, 0
  br i1 %.not, label %7, label %19

7:                                                ; preds = %4
  %8 = getelementptr inbounds i8, ptr %0, i64 24
  %9 = load ptr, ptr %0, align 8
  %10 = load i32, ptr %8, align 8
  %11 = getelementptr inbounds i8, ptr %0, i64 72
  %12 = load i32, ptr %11, align 8
  %13 = add i32 %12, %10
  %.not25 = icmp eq i32 %13, %2
  br i1 %.not25, label %14, label %19

14:                                               ; preds = %7
  %15 = tail call fastcc i32 @ps_dimension_set_mask_bits(ptr noundef nonnull %8, ptr noundef %3, i32 noundef %12, i32 noundef %10, i32 noundef %1, ptr noundef %9)
  %.not26 = icmp eq i32 %15, 0
  br i1 %.not26, label %16, label %18

16:                                               ; preds = %14
  %17 = tail call fastcc i32 @ps_dimension_set_mask_bits(ptr noundef nonnull %11, ptr noundef %3, i32 noundef 0, i32 noundef %12, i32 noundef %1, ptr noundef %9)
  %.not27 = icmp eq i32 %17, 0
  br i1 %.not27, label %19, label %18

18:                                               ; preds = %16, %14
  %.0 = phi i32 [ %15, %14 ], [ %17, %16 ]
  store i32 %.0, ptr %5, align 8
  br label %19

19:                                               ; preds = %4, %16, %7, %18
  ret void
}